target datalayout = "e-m:e-p270:32:32-p271:32:32-p272:64:64-i64:64-i128:128-f80:128-n8:16:32:64-S128"
target triple = "x86_64-pc-linux-gnu"

%struct.hashmap = type { ptr, ptr, ptr, i32, i32, i32, i32, i8 }
%struct.raw_object_store = type { ptr, ptr, ptr, i32, ptr, ptr, i8, %union.pthread_mutex_t, ptr, i8, ptr, ptr, %struct.list_head, %struct.anon, %struct.hashmap, i64, i8 }
%union.pthread_mutex_t = type { %struct.__pthread_mutex_s }
%struct.__pthread_mutex_s = type { i32, i32, i32, i32, i32, i16, i16, %struct.__pthread_internal_list }
%struct.__pthread_internal_list = type { ptr, ptr }
%struct.list_head = type { ptr, ptr }
%struct.anon = type { ptr, i32 }
%struct.commit_graph = type { ptr, i64, i8, i8, i32, %struct.object_id, ptr, ptr, i32, i32, ptr, ptr, ptr, ptr, ptr, ptr, i64, ptr, i64, ptr, i64, ptr, ptr, i64, ptr, ptr }
%struct.object_id = type { [32 x i8], i32 }
%struct.commit_graph_data_slab = type { i32, i32, i32, ptr }

@commit_graph_data_slab = internal global { i32, i32, i32, [4 x i8], ptr } { i32 32766, i32 1, i32 0, [4 x i8] zeroinitializer, ptr null }, align 8

; Function Attrs: nounwind uwtable
define dso_local void @free_commit_graph(ptr noundef %0) #0 {
  %2 = alloca ptr, align 8
  %3 = alloca ptr, align 8
  store ptr %0, ptr %2, align 8, !tbaa !79
  br label %4

4:                                                ; preds = %23, %1
  %5 = load ptr, ptr %2, align 8, !tbaa !79
  %6 = icmp ne ptr %5, null
  br i1 %6, label %7, label %32

7:                                                ; preds = %4
  call void @llvm.lifetime.start.p0(i64 8, ptr %3) #12
  %8 = load ptr, ptr %2, align 8, !tbaa !79
  %9 = getelementptr inbounds nuw %struct.commit_graph, ptr %8, i32 0, i32 10
  %10 = load ptr, ptr %9, align 8, !tbaa !127
  store ptr %10, ptr %3, align 8, !tbaa !79
  %11 = load ptr, ptr %2, align 8, !tbaa !79
  %12 = getelementptr inbounds nuw %struct.commit_graph, ptr %11, i32 0, i32 0
  %13 = load ptr, ptr %12, align 8, !tbaa !92
  %14 = icmp ne ptr %13, null
  br i1 %14, label %15, label %23

15:                                               ; preds = %7
  %16 = load ptr, ptr %2, align 8, !tbaa !79
  %17 = getelementptr inbounds nuw %struct.commit_graph, ptr %16, i32 0, i32 0
  %18 = load ptr, ptr %17, align 8, !tbaa !92
  %19 = load ptr, ptr %2, align 8, !tbaa !79
  %20 = getelementptr inbounds nuw %struct.commit_graph, ptr %19, i32 0, i32 1
  %21 = load i64, ptr %20, align 8, !tbaa !93
  %22 = call i32 @munmap(ptr noundef %18, i64 noundef %21) #12
  br label %23

23:                                               ; preds = %15, %7
  %24 = load ptr, ptr %2, align 8, !tbaa !79
  %25 = getelementptr inbounds nuw %struct.commit_graph, ptr %24, i32 0, i32 6
  %26 = load ptr, ptr %25, align 8, !tbaa !124
  call void @free(ptr noundef %26) #12
  %27 = load ptr, ptr %2, align 8, !tbaa !79
  %28 = getelementptr inbounds nuw %struct.commit_graph, ptr %27, i32 0, i32 25
  %29 = load ptr, ptr %28, align 8, !tbaa !100
  call void @free(ptr noundef %29) #12
  %30 = load ptr, ptr %2, align 8, !tbaa !79
  call void @free(ptr noundef %30) #12
  %31 = load ptr, ptr %3, align 8, !tbaa !79
  store ptr %31, ptr %2, align 8, !tbaa !79
  call void @llvm.lifetime.end.p0(i64 8, ptr %3) #12
  br label %4, !llvm.loop !130

32:                                               ; preds = %4
  ret void
}

; Function Attrs: nounwind uwtable
define internal void @clear_commit_graph_data_slab(ptr noundef %0) #0 {
  %2 = alloca ptr, align 8
  %3 = alloca i32, align 4
  store ptr %0, ptr %2, align 8, !tbaa !58
  call void @llvm.lifetime.start.p0(i64 4, ptr %3) #12
  store i32 0, ptr %3, align 4, !tbaa !4
  br label %4

4:                                                ; preds = %18, %1
  %5 = load i32, ptr %3, align 4, !tbaa !4
  %6 = load ptr, ptr %2, align 8, !tbaa !58
  %7 = getelementptr inbounds nuw %struct.commit_graph_data_slab, ptr %6, i32 0, i32 2
  %8 = load i32, ptr %7, align 8, !tbaa !142
  %9 = icmp ult i32 %5, %8
  br i1 %9, label %10, label %21

10:                                               ; preds = %4
  %11 = load ptr, ptr %2, align 8, !tbaa !58
  %12 = getelementptr inbounds nuw %struct.commit_graph_data_slab, ptr %11, i32 0, i32 3
  %13 = load ptr, ptr %12, align 8, !tbaa !145
  %14 = load i32, ptr %3, align 4, !tbaa !4
  %15 = zext i32 %14 to i64
  %16 = getelementptr inbounds nuw ptr, ptr %13, i64 %15
  %17 = load ptr, ptr %16, align 8, !tbaa !54
  call void @free(ptr noundef %17) #12
  br label %18

18:                                               ; preds = %10
  %19 = load i32, ptr %3, align 4, !tbaa !4
  %20 = add i32 %19, 1
  store i32 %20, ptr %3, align 4, !tbaa !4
  br label %4, !llvm.loop !146

21:                                               ; preds = %4
  %22 = load ptr, ptr %2, align 8, !tbaa !58
  %23 = getelementptr inbounds nuw %struct.commit_graph_data_slab, ptr %22, i32 0, i32 2
  store i32 0, ptr %23, align 8, !tbaa !142
  br label %24

24:                                               ; preds = %21
  %25 = load ptr, ptr %2, align 8, !tbaa !58
  %26 = getelementptr inbounds nuw %struct.commit_graph_data_slab, ptr %25, i32 0, i32 3
  %27 = load ptr, ptr %26, align 8, !tbaa !145
  call void @free(ptr noundef %27) #12
  %28 = load ptr, ptr %2, align 8, !tbaa !58
  %29 = getelementptr inbounds nuw %struct.commit_graph_data_slab, ptr %28, i32 0, i32 3
  store ptr null, ptr %29, align 8, !tbaa !145
  br label %30

30:                                               ; preds = %24
  br label %31

31:                                               ; preds = %30
  call void @llvm.lifetime.end.p0(i64 4, ptr %3) #12
  ret void
}

; Function Attrs: nounwind uwtable
define dso_local void @close_commit_graph(ptr noundef %0) #0 {
  %2 = alloca ptr, align 8
  store ptr %0, ptr %2, align 8, !tbaa !141
  %3 = load ptr, ptr %2, align 8, !tbaa !141
  %4 = getelementptr inbounds nuw %struct.raw_object_store, ptr %3, i32 0, i32 8
  %5 = load ptr, ptr %4, align 8, !tbaa !135
  %6 = icmp ne ptr %5, null
  br i1 %6, label %8, label %7

7:                                                ; preds = %1
  br label %14

8:                                                ; preds = %1
  call void @clear_commit_graph_data_slab(ptr noundef @commit_graph_data_slab)
  call void @deinit_bloom_filters()
  %9 = load ptr, ptr %2, align 8, !tbaa !141
  %10 = getelementptr inbounds nuw %struct.raw_object_store, ptr %9, i32 0, i32 8
  %11 = load ptr, ptr %10, align 8, !tbaa !135
  call void @free_commit_graph(ptr noundef %11)
  %12 = load ptr, ptr %2, align 8, !tbaa !141
  %13 = getelementptr inbounds nuw %struct.raw_object_store, ptr %12, i32 0, i32 8
  store ptr null, ptr %13, align 8, !tbaa !135
  br label %14

14:                                               ; preds = %8, %7
  ret void
}