; Function Attrs: nounwind uwtable
define dso_local void @close_commit_graph(ptr noundef captures(none) %0) local_unnamed_addr #0 {
  %2 = getelementptr inbounds nuw i8, ptr %0, i64 96
  %3 = load ptr, ptr %2, align 8, !tbaa !123
  %.not = icmp eq ptr %3, null
  br i1 %.not, label %26, label %4

4:                                                ; preds = %1
  %5 = load i32, ptr @commit_graph_data_slab.2, align 8, !tbaa !55
  %.not.i = icmp eq i32 %5, 0
  br i1 %.not.i, label %clear_commit_graph_data_slab.exit, label %.lr.ph.i.preheader

.lr.ph.i.preheader:                               ; preds = %4
  %6 = load ptr, ptr @commit_graph_data_slab.3, align 8, !tbaa !58
  %7 = load i32, ptr @commit_graph_data_slab.2, align 8, !tbaa !55
  %8 = zext i32 %7 to i64
  br label %.lr.ph.i

.lr.ph.i:                                         ; preds = %.lr.ph.i.preheader, %.lr.ph.i
  %indvars.iv.i = phi i64 [ %indvars.iv.next.i, %.lr.ph.i ], [ 0, %.lr.ph.i.preheader ]
  %9 = getelementptr inbounds nuw ptr, ptr %6, i64 %indvars.iv.i
  %10 = load ptr, ptr %9, align 8, !tbaa !59
  tail call void @free(ptr noundef %10) #24
  %indvars.iv.next.i = add nuw nsw i64 %indvars.iv.i, 1
  %11 = icmp samesign ult i64 %indvars.iv.next.i, %8
  br i1 %11, label %.lr.ph.i, label %clear_commit_graph_data_slab.exit, !llvm.loop !130

clear_commit_graph_data_slab.exit:                ; preds = %.lr.ph.i, %4
  store i32 0, ptr @commit_graph_data_slab.2, align 8, !tbaa !55
  %12 = load ptr, ptr @commit_graph_data_slab.3, align 8, !tbaa !58
  tail call void @free(ptr noundef %12) #24
  store ptr null, ptr @commit_graph_data_slab.3, align 8, !tbaa !58
  tail call void @deinit_bloom_filters() #24
  %13 = load ptr, ptr %2, align 8, !tbaa !123
  %.not11.i = icmp eq ptr %13, null
  br i1 %.not11.i, label %free_commit_graph.exit, label %.lr.ph.i3

.lr.ph.i3:                                        ; preds = %clear_commit_graph_data_slab.exit, %21
  %.012.i = phi ptr [ %15, %21 ], [ %13, %clear_commit_graph_data_slab.exit ]
  %14 = getelementptr inbounds nuw i8, ptr %.012.i, i64 88
  %15 = load ptr, ptr %14, align 8, !tbaa !114
  %16 = load ptr, ptr %.012.i, align 8, !tbaa !83
  %.not10.i = icmp eq ptr %16, null
  br i1 %.not10.i, label %21, label %17

17:                                               ; preds = %.lr.ph.i3
  %18 = getelementptr inbounds nuw i8, ptr %.012.i, i64 8
  %19 = load i64, ptr %18, align 8, !tbaa !84
  %20 = tail call i32 @munmap(ptr noundef nonnull %16, i64 noundef %19) #24
  br label %21

21:                                               ; preds = %17, %.lr.ph.i3
  %22 = getelementptr inbounds nuw i8, ptr %.012.i, i64 64
  %23 = load ptr, ptr %22, align 8, !tbaa !111
  tail call void @free(ptr noundef %23) #24
  %24 = getelementptr inbounds nuw i8, ptr %.012.i, i64 208
  %25 = load ptr, ptr %24, align 8, !tbaa !91
  tail call void @free(ptr noundef %25) #24
  tail call void @free(ptr noundef nonnull %.012.i) #24
  %.not.i4 = icmp eq ptr %15, null
  br i1 %.not.i4, label %free_commit_graph.exit, label %.lr.ph.i3, !llvm.loop !117

free_commit_graph.exit:                           ; preds = %21, %clear_commit_graph_data_slab.exit
  store ptr null, ptr %2, align 8, !tbaa !123
  br label %26

26:                                               ; preds = %1, %free_commit_graph.exit
  ret void
}